; ModuleID = '31/1442.c'
source_filename = "31/1442.c"
target datalayout = "e-m:e-p270:32:32-p271:32:32-p272:64:64-i64:64-f80:128-n8:16:32:64-S128"
target triple = "x86_64-pc-linux-gnu"

%struct.student = type { [40 x i8], [50 x i8], i8, i32, float, [50 x i8], %struct.student* }

@.str = private unnamed_addr constant [14 x i8] c"%s%s %c%d%f%s\00", align 1
@n = common dso_local global i32 0, align 4
@.str.1 = private unnamed_addr constant [3 x i8] c"%s\00", align 1
@.str.2 = private unnamed_addr constant [12 x i8] c"%s %c%d%f%s\00", align 1
@.str.3 = private unnamed_addr constant [19 x i8] c"%s %s %c %d %g %s\0A\00", align 1

; Function Attrs: noinline nounwind uwtable
define dso_local %struct.student* @creat() #0 {
  %1 = alloca %struct.student*, align 8
  %2 = alloca %struct.student*, align 8
  %3 = alloca %struct.student*, align 8
  %4 = call noalias i8* @malloc(i64 100) #3
  %5 = bitcast i8* %4 to %struct.student*
  store %struct.student* %5, %struct.student** %3, align 8
  store %struct.student* %5, %struct.student** %2, align 8
  store %struct.student* null, %struct.student** %1, align 8
  %6 = load %struct.student*, %struct.student** %2, align 8
  %7 = getelementptr inbounds %struct.student, %struct.student* %6, i32 0, i32 0
  %8 = getelementptr inbounds [40 x i8], [40 x i8]* %7, i64 0, i64 0
  %9 = load %struct.student*, %struct.student** %2, align 8
  %10 = getelementptr inbounds %struct.student, %struct.student* %9, i32 0, i32 1
  %11 = getelementptr inbounds [50 x i8], [50 x i8]* %10, i64 0, i64 0
  %12 = load %struct.student*, %struct.student** %2, align 8
  %13 = getelementptr inbounds %struct.student, %struct.student* %12, i32 0, i32 2
  %14 = load %struct.student*, %struct.student** %2, align 8
  %15 = getelementptr inbounds %struct.student, %struct.student* %14, i32 0, i32 3
  %16 = load %struct.student*, %struct.student** %2, align 8
  %17 = getelementptr inbounds %struct.student, %struct.student* %16, i32 0, i32 4
  %18 = load %struct.student*, %struct.student** %2, align 8
  %19 = getelementptr inbounds %struct.student, %struct.student* %18, i32 0, i32 5
  %20 = getelementptr inbounds [50 x i8], [50 x i8]* %19, i64 0, i64 0
  %21 = call i32 (i8*, ...) @__isoc99_scanf(i8* getelementptr inbounds ([14 x i8], [14 x i8]* @.str, i64 0, i64 0), i8* %8, i8* %11, i8* %13, i32* %15, float* %17, i8* %20)
  store i32 0, i32* @n, align 4
  br label %22

22:                                               ; preds = %0, %48
  %23 = load i32, i32* @n, align 4
  %24 = add nsw i32 %23, 1
  store i32 %24, i32* @n, align 4
  %25 = load i32, i32* @n, align 4
  %26 = icmp eq i32 %25, 1
  br i1 %26, label %27, label %29

27:                                               ; preds = %22
  %28 = load %struct.student*, %struct.student** %2, align 8
  store %struct.student* %28, %struct.student** %1, align 8
  br label %33

29:                                               ; preds = %22
  %30 = load %struct.student*, %struct.student** %2, align 8
  %31 = load %struct.student*, %struct.student** %3, align 8
  %32 = getelementptr inbounds %struct.student, %struct.student* %31, i32 0, i32 6
  store %struct.student* %30, %struct.student** %32, align 8
  br label %33

33:                                               ; preds = %29, %27
  %34 = load %struct.student*, %struct.student** %2, align 8
  store %struct.student* %34, %struct.student** %3, align 8
  %35 = call noalias i8* @malloc(i64 100) #3
  %36 = bitcast i8* %35 to %struct.student*
  store %struct.student* %36, %struct.student** %2, align 8
  %37 = load %struct.student*, %struct.student** %2, align 8
  %38 = getelementptr inbounds %struct.student, %struct.student* %37, i32 0, i32 0
  %39 = getelementptr inbounds [40 x i8], [40 x i8]* %38, i64 0, i64 0
  %40 = call i32 (i8*, ...) @__isoc99_scanf(i8* getelementptr inbounds ([3 x i8], [3 x i8]* @.str.1, i64 0, i64 0), i8* %39)
  %41 = load %struct.student*, %struct.student** %2, align 8
  %42 = getelementptr inbounds %struct.student, %struct.student* %41, i32 0, i32 0
  %43 = getelementptr inbounds [40 x i8], [40 x i8]* %42, i64 0, i64 0
  %44 = load i8, i8* %43, align 8
  %45 = sext i8 %44 to i32
  %46 = icmp eq i32 %45, 101
  br i1 %46, label %47, label %48

47:                                               ; preds = %33
  br label %62

48:                                               ; preds = %33
  %49 = load %struct.student*, %struct.student** %2, align 8
  %50 = getelementptr inbounds %struct.student, %struct.student* %49, i32 0, i32 1
  %51 = getelementptr inbounds [50 x i8], [50 x i8]* %50, i64 0, i64 0
  %52 = load %struct.student*, %struct.student** %2, align 8
  %53 = getelementptr inbounds %struct.student, %struct.student* %52, i32 0, i32 2
  %54 = load %struct.student*, %struct.student** %2, align 8
  %55 = getelementptr inbounds %struct.student, %struct.student* %54, i32 0, i32 3
  %56 = load %struct.student*, %struct.student** %2, align 8
  %57 = getelementptr inbounds %struct.student, %struct.student* %56, i32 0, i32 4
  %58 = load %struct.student*, %struct.student** %2, align 8
  %59 = getelementptr inbounds %struct.student, %struct.student* %58, i32 0, i32 5
  %60 = getelementptr inbounds [50 x i8], [50 x i8]* %59, i64 0, i64 0
  %61 = call i32 (i8*, ...) @__isoc99_scanf(i8* getelementptr inbounds ([12 x i8], [12 x i8]* @.str.2, i64 0, i64 0), i8* %51, i8* %53, i32* %55, float* %57, i8* %60)
  br label %22

62:                                               ; preds = %47
  %63 = load %struct.student*, %struct.student** %3, align 8
  %64 = getelementptr inbounds %struct.student, %struct.student* %63, i32 0, i32 6
  store %struct.student* null, %struct.student** %64, align 8
  %65 = load %struct.student*, %struct.student** %1, align 8
  ret %struct.student* %65
}

; Function Attrs: nounwind
declare dso_local noalias i8* @malloc(i64) #1

declare dso_local i32 @__isoc99_scanf(i8*, ...) #2

; Function Attrs: noinline nounwind uwtable
define dso_local %struct.student* @reverse(%struct.student* %0) #0 {
  %2 = alloca %struct.student*, align 8
  %3 = alloca %struct.student*, align 8
  %4 = alloca %struct.student*, align 8
  %5 = alloca %struct.student*, align 8
  store %struct.student* %0, %struct.student** %2, align 8
  %6 = load %struct.student*, %struct.student** %2, align 8
  store %struct.student* %6, %struct.student** %3, align 8
  %7 = load %struct.student*, %struct.student** %3, align 8
  store %struct.student* %7, %struct.student** %4, align 8
  %8 = load %struct.student*, %struct.student** %3, align 8
  store %struct.student* %8, %struct.student** %5, align 8
  br label %9

9:                                                ; preds = %30, %1
  %10 = load %struct.student*, %struct.student** %5, align 8
  %11 = load %struct.student*, %struct.student** %2, align 8
  %12 = icmp eq %struct.student* %10, %11
  br i1 %12, label %13, label %20

13:                                               ; preds = %9
  %14 = load %struct.student*, %struct.student** %4, align 8
  %15 = getelementptr inbounds %struct.student, %struct.student* %14, i32 0, i32 6
  %16 = load %struct.student*, %struct.student** %15, align 8
  store %struct.student* %16, %struct.student** %5, align 8
  %17 = load %struct.student*, %struct.student** %5, align 8
  store %struct.student* %17, %struct.student** %4, align 8
  %18 = load %struct.student*, %struct.student** %3, align 8
  %19 = getelementptr inbounds %struct.student, %struct.student* %18, i32 0, i32 6
  store %struct.student* null, %struct.student** %19, align 8
  br label %29

20:                                               ; preds = %9
  %21 = load %struct.student*, %struct.student** %4, align 8
  %22 = getelementptr inbounds %struct.student, %struct.student* %21, i32 0, i32 6
  %23 = load %struct.student*, %struct.student** %22, align 8
  store %struct.student* %23, %struct.student** %5, align 8
  %24 = load %struct.student*, %struct.student** %3, align 8
  %25 = load %struct.student*, %struct.student** %4, align 8
  %26 = getelementptr inbounds %struct.student, %struct.student* %25, i32 0, i32 6
  store %struct.student* %24, %struct.student** %26, align 8
  %27 = load %struct.student*, %struct.student** %4, align 8
  store %struct.student* %27, %struct.student** %3, align 8
  %28 = load %struct.student*, %struct.student** %5, align 8
  store %struct.student* %28, %struct.student** %4, align 8
  br label %29

29:                                               ; preds = %20, %13
  br label %30

30:                                               ; preds = %29
  %31 = load %struct.student*, %struct.student** %5, align 8
  %32 = icmp ne %struct.student* %31, null
  br i1 %32, label %9, label %33

33:                                               ; preds = %30
  %34 = load %struct.student*, %struct.student** %3, align 8
  store %struct.student* %34, %struct.student** %2, align 8
  %35 = load %struct.student*, %struct.student** %2, align 8
  ret %struct.student* %35
}

; Function Attrs: noinline nounwind uwtable
define dso_local i32 @main() #0 {
  %1 = alloca i32, align 4
  %2 = alloca %struct.student*, align 8
  %3 = alloca %struct.student*, align 8
  store i32 0, i32* %1, align 4
  %4 = call %struct.student* @creat()
  store %struct.student* %4, %struct.student** %2, align 8
  %5 = load %struct.student*, %struct.student** %2, align 8
  %6 = call %struct.student* @reverse(%struct.student* %5)
  store %struct.student* %6, %struct.student** %2, align 8
  %7 = load %struct.student*, %struct.student** %2, align 8
  store %struct.student* %7, %struct.student** %3, align 8
  br label %8

8:                                                ; preds = %11, %0
  %9 = load %struct.student*, %struct.student** %3, align 8
  %10 = icmp ne %struct.student* %9, null
  br i1 %10, label %11, label %36

11:                                               ; preds = %8
  %12 = load %struct.student*, %struct.student** %3, align 8
  %13 = getelementptr inbounds %struct.student, %struct.student* %12, i32 0, i32 0
  %14 = getelementptr inbounds [40 x i8], [40 x i8]* %13, i64 0, i64 0
  %15 = load %struct.student*, %struct.student** %3, align 8
  %16 = getelementptr inbounds %struct.student, %struct.student* %15, i32 0, i32 1
  %17 = getelementptr inbounds [50 x i8], [50 x i8]* %16, i64 0, i64 0
  %18 = load %struct.student*, %struct.student** %3, align 8
  %19 = getelementptr inbounds %struct.student, %struct.student* %18, i32 0, i32 2
  %20 = load i8, i8* %19, align 2
  %21 = sext i8 %20 to i32
  %22 = load %struct.student*, %struct.student** %3, align 8
  %23 = getelementptr inbounds %struct.student, %struct.student* %22, i32 0, i32 3
  %24 = load i32, i32* %23, align 4
  %25 = load %struct.student*, %struct.student** %3, align 8
  %26 = getelementptr inbounds %struct.student, %struct.student* %25, i32 0, i32 4
  %27 = load float, float* %26, align 8
  %28 = fpext float %27 to double
  %29 = load %struct.student*, %struct.student** %3, align 8
  %30 = getelementptr inbounds %struct.student, %struct.student* %29, i32 0, i32 5
  %31 = getelementptr inbounds [50 x i8], [50 x i8]* %30, i64 0, i64 0
  %32 = call i32 (i8*, ...) @printf(i8* getelementptr inbounds ([19 x i8], [19 x i8]* @.str.3, i64 0, i64 0), i8* %14, i8* %17, i32 %21, i32 %24, double %28, i8* %31)
  %33 = load %struct.student*, %struct.student** %3, align 8
  %34 = getelementptr inbounds %struct.student, %struct.student* %33, i32 0, i32 6
  %35 = load %struct.student*, %struct.student** %34, align 8
  store %struct.student* %35, %struct.student** %3, align 8
  br label %8

36:                                               ; preds = %8
  ret i32 0
}

declare dso_local i32 @printf(i8*, ...) #2


!llvm.module.flags = !{!0}
!llvm.ident = !{!1}

!0 = !{i32 1, !"wchar_size", i32 4}
!1 = !{!"clang version 10.0.0-4ubuntu1 "}
